Certificate:
    Data:
        Version: 3 (0x2)
        Serial Number: 1 (0x1)
        Signature Algorithm: sha1WithRSAEncryption
        Issuer: C=JP, ST=SDLoader, O=SDLoader, OU=SDLoader, CN=SDLoader
        Validity
            Not Before: Apr  9 13:14:50 2009 GMT
            Not After : Apr  7 13:14:50 2019 GMT
        Subject: C=JP, ST=Unknown, O=SDLoader, OU=SDLoader, CN=SDLoader
        Subject Public Key Info:
            Public Key Algorithm: rsaEncryption
            RSA Public Key: (512 bit)
                Modulus (512 bit):
                    00:be:ea:08:9a:3e:1c:33:44:f9:65:05:c7:5a:1c:
                    dd:e9:2d:ae:b8:2b:8b:b1:72:5c:68:bb:7e:14:17:
                    77:2c:c7:00:18:6b:10:0f:c7:49:17:b0:f4:0c:c8:
                    6e:ac:fa:49:46:ba:e0:f9:aa:8a:ab:7c:ff:0c:d6:
                    e0:f6:a3:da:f9
                Exponent: 65537 (0x10001)
        X509v3 extensions:
            X509v3 Basic Constraints: 
                CA:FALSE
            Netscape Cert Type: 
                SSL Server
            Netscape Comment: 
                OpenSSL Generated Certificate
            X509v3 Subject Key Identifier: 
                99:34:79:A9:5C:15:59:27:A0:07:BD:D9:47:2C:87:5A:01:1A:26:C2
            X509v3 Authority Key Identifier: 
                keyid:EA:51:16:10:F7:42:D1:50:2A:B0:52:4F:99:4E:79:FD:F2:98:90:93

    Signature Algorithm: sha1WithRSAEncryption
        a5:af:eb:63:ba:ec:41:77:d8:e4:d8:29:9c:a5:5d:71:e9:66:
        18:c7:85:ef:5b:88:95:53:e7:2b:66:b7:f6:cb:b6:5a:27:48:
        83:19:af:d9:4d:5f:8e:1f:ec:ee:83:a1:66:a7:68:d3:c9:34:
        02:d4:51:99:75:72:a6:c3:23:44:21:61:f5:96:bc:65:64:dd:
        a5:00:21:b0:e0:c6:6d:dd:f4:93:83:f7:01:b2:1a:f5:63:39:
        74:1f:df:57:38:33:25:75:8c:e2:65:d0:22:4d:3f:62:61:9e:
        8e:5e:a8:1c:70:f2:56:ef:38:b1:25:ef:ac:3a:db:e0:6f:41:
        16:57
-----BEGIN CERTIFICATE-----
MIICczCCAdygAwIBAgIBATANBgkqhkiG9w0BAQUFADBZMQswCQYDVQQGEwJKUDER
MA8GA1UECBMIU0RMb2FkZXIxETAPBgNVBAoTCFNETG9hZGVyMREwDwYDVQQLEwhT
RExvYWRlcjERMA8GA1UEAxMIU0RMb2FkZXIwHhcNMDkwNDA5MTMxNDUwWhcNMTkw
NDA3MTMxNDUwWjBYMQswCQYDVQQGEwJKUDEQMA4GA1UECBMHVW5rbm93bjERMA8G
A1UEChMIU0RMb2FkZXIxETAPBgNVBAsTCFNETG9hZGVyMREwDwYDVQQDEwhTRExv
YWRlcjBcMA0GCSqGSIb3DQEBAQUAA0sAMEgCQQC+6giaPhwzRPllBcdaHN3pLa64
K4uxclxou34UF3csxwAYaxAPx0kXsPQMyG6s+klGuuD5qoqrfP8M1uD2o9r5AgMB
AAGjgY8wgYwwCQYDVR0TBAIwADARBglghkgBhvhCAQEEBAMCBkAwLAYJYIZIAYb4
QgENBB8WHU9wZW5TU0wgR2VuZXJhdGVkIENlcnRpZmljYXRlMB0GA1UdDgQWBBSZ
NHmpXBVZJ6AHvdlHLIdaARomwjAfBgNVHSMEGDAWgBTqURYQ90LRUCqwUk+ZTnn9
8piQkzANBgkqhkiG9w0BAQUFAAOBgQClr+tjuuxBd9jk2CmcpV1x6WYYx4XvW4iV
U+crZrf2y7ZaJ0iDGa/ZTV+OH+zug6Fmp2jTyTQC1FGZdXKmwyNEIWH1lrxlZN2l
ACGw4MZt3fSTg/cBshr1Yzl0H99XODMldYziZdAiTT9iYZ6OXqgccPJW7zixJe+s
Otvgb0EWVw==
-----END CERTIFICATE-----
