Certificate:
    Data:
        Version: 3 (0x2)
        Serial Number: 0 (0x0)
        Signature Algorithm: sha1WithRSAEncryption
        Issuer: C=JP, ST=SDLoader, O=SDLoader, OU=SDLoader, CN=SDLoader
        Validity
            Not Before: Apr  9 13:14:21 2009 GMT
            Not After : Apr  7 13:14:21 2019 GMT
        Subject: C=JP, ST=SDLoader, O=SDLoader, OU=SDLoader, CN=SDLoader
        Subject Public Key Info:
            Public Key Algorithm: rsaEncryption
            RSA Public Key: (1024 bit)
                Modulus (1024 bit):
                    00:f6:b1:d9:85:b4:b3:df:7b:dd:ca:35:da:89:05:
                    ca:2a:1b:9a:6c:b3:31:05:aa:98:56:c5:3e:70:4b:
                    1a:a7:51:7d:fe:88:ce:d4:d7:d9:3c:11:98:83:de:
                    a9:b8:c2:bd:7c:c9:f3:80:02:14:79:02:f2:49:08:
                    b3:3c:bd:d6:fa:e4:2e:02:3f:5d:85:15:07:65:83:
                    6c:e0:c4:46:99:06:af:90:fd:dc:89:3d:a0:67:80:
                    66:31:01:ef:19:73:be:aa:c9:af:ef:e8:05:c3:9c:
                    5b:4e:44:78:94:27:16:0e:9a:9f:78:0e:20:c4:8f:
                    ae:6b:e9:52:ce:65:22:3e:3d
                Exponent: 65537 (0x10001)
        X509v3 extensions:
            X509v3 Subject Key Identifier: 
                EA:51:16:10:F7:42:D1:50:2A:B0:52:4F:99:4E:79:FD:F2:98:90:93
            X509v3 Authority Key Identifier: 
                keyid:EA:51:16:10:F7:42:D1:50:2A:B0:52:4F:99:4E:79:FD:F2:98:90:93
                DirName:/C=JP/ST=SDLoader/O=SDLoader/OU=SDLoader/CN=SDLoader
                serial:00

            X509v3 Basic Constraints: 
                CA:TRUE
    Signature Algorithm: sha1WithRSAEncryption
        87:af:1d:f9:76:17:34:19:67:75:52:35:17:f4:b6:95:b7:a1:
        72:f1:47:84:84:d1:4d:2e:ba:58:67:05:e6:b5:42:47:17:27:
        56:41:c1:85:27:93:82:3c:4f:45:d8:ab:17:2a:5f:0a:82:d7:
        99:b8:d6:0f:ee:7a:64:09:82:db:ba:80:a7:b9:c0:3c:cb:02:
        40:7d:91:6d:f0:ff:45:54:78:f5:b7:66:59:78:b6:c8:19:c1:
        ce:fd:93:0f:07:dd:e1:2b:30:1c:1a:f9:49:d8:54:eb:f6:1c:
        c7:2e:37:f4:c4:4c:7b:2c:ce:6d:e4:9a:f7:5d:f6:1f:99:fe:
        28:77
-----BEGIN CERTIFICATE-----
MIIC3TCCAkagAwIBAgIBADANBgkqhkiG9w0BAQUFADBZMQswCQYDVQQGEwJKUDER
MA8GA1UECBMIU0RMb2FkZXIxETAPBgNVBAoTCFNETG9hZGVyMREwDwYDVQQLEwhT
RExvYWRlcjERMA8GA1UEAxMIU0RMb2FkZXIwHhcNMDkwNDA5MTMxNDIxWhcNMTkw
NDA3MTMxNDIxWjBZMQswCQYDVQQGEwJKUDERMA8GA1UECBMIU0RMb2FkZXIxETAP
BgNVBAoTCFNETG9hZGVyMREwDwYDVQQLEwhTRExvYWRlcjERMA8GA1UEAxMIU0RM
b2FkZXIwgZ8wDQYJKoZIhvcNAQEBBQADgY0AMIGJAoGBAPax2YW0s9973co12okF
yiobmmyzMQWqmFbFPnBLGqdRff6IztTX2TwRmIPeqbjCvXzJ84ACFHkC8kkIszy9
1vrkLgI/XYUVB2WDbODERpkGr5D93Ik9oGeAZjEB7xlzvqrJr+/oBcOcW05EeJQn
Fg6an3gOIMSPrmvpUs5lIj49AgMBAAGjgbQwgbEwHQYDVR0OBBYEFOpRFhD3QtFQ
KrBST5lOef3ymJCTMIGBBgNVHSMEejB4gBTqURYQ90LRUCqwUk+ZTnn98piQk6Fd
pFswWTELMAkGA1UEBhMCSlAxETAPBgNVBAgTCFNETG9hZGVyMREwDwYDVQQKEwhT
RExvYWRlcjERMA8GA1UECxMIU0RMb2FkZXIxETAPBgNVBAMTCFNETG9hZGVyggEA
MAwGA1UdEwQFMAMBAf8wDQYJKoZIhvcNAQEFBQADgYEAh68d+XYXNBlndVI1F/S2
lbehcvFHhITRTS66WGcF5rVCRxcnVkHBhSeTgjxPRdirFypfCoLXmbjWD+56ZAmC
27qAp7nAPMsCQH2RbfD/RVR49bdmWXi2yBnBzv2TDwfd4SswHBr5SdhU6/Ycxy43
9MRMeyzObeSa9132H5n+KHc=
-----END CERTIFICATE-----
